; Function Attrs: mustprogress uwtable
define dso_local void @_ZN4Luau7CodeGen3X6418AssemblyBuilderX645setccENS0_12ConditionX64ENS1_10OperandX64E(ptr noundef nonnull align 8 dereferenceable(252) %0, i8 noundef zeroext %1, i64 %2) local_unnamed_addr #0 align 2 {
  %4 = getelementptr inbounds nuw i8, ptr %0, i64 80
  %5 = load i8, ptr %4, align 8, !tbaa !14, !range !61, !noundef !62
  %6 = trunc nuw i8 %5 to i1
  br i1 %6, label %7, label %11

7:                                                ; preds = %3
  %8 = zext i8 %1 to i64
  %9 = getelementptr inbounds nuw [26 x ptr], ptr @_ZN4Luau7CodeGen3X64L21setccTextForConditionE, i64 0, i64 %8
  %10 = load ptr, ptr %9, align 8, !tbaa !64
  tail call void @_ZN4Luau7CodeGen3X6418AssemblyBuilderX643logEPKcNS1_10OperandX64E(ptr noundef nonnull align 8 dereferenceable(252) %0, ptr noundef %10, i64 %2)
  br label %11

11:                                               ; preds = %7, %3
  %.sroa.0.0.extract.trunc.i = trunc i64 %2 to i8
  %.sroa.4.0.extract.shift.i = lshr i64 %2, 16
  %.sroa.4.0.extract.trunc.i = trunc i64 %.sroa.4.0.extract.shift.i to i8
  switch i8 %.sroa.0.0.extract.trunc.i, label %_ZN4Luau7CodeGen3X6418AssemblyBuilderX648placeRexENS1_10OperandX64E.exit [
    i8 0, label %12
    i8 1, label %23
  ]

12:                                               ; preds = %11
  %13 = and i8 %.sroa.4.0.extract.trunc.i, 7
  %14 = icmp eq i8 %13, 4
  %15 = icmp eq i8 %13, 1
  %16 = icmp ugt i8 %.sroa.4.0.extract.trunc.i, 31
  %17 = and i1 %16, %15
  %18 = or i1 %14, %17
  %19 = select i1 %18, i8 8, i8 0
  %20 = lshr i8 %.sroa.4.0.extract.trunc.i, 6
  %21 = and i8 %20, 1
  %22 = or disjoint i8 %19, %21
  br label %35

23:                                               ; preds = %11
  %24 = and i64 %2, 251658240
  %25 = icmp eq i64 %24, 67108864
  %26 = select i1 %25, i32 8, i32 0
  %27 = trunc i64 %2 to i32
  %28 = lshr i32 %27, 13
  %29 = and i32 %28, 2
  %30 = or disjoint i32 %26, %29
  %31 = lshr i8 %.sroa.4.0.extract.trunc.i, 6
  %32 = and i8 %31, 1
  %33 = trunc nuw nsw i32 %30 to i8
  %34 = or disjoint i8 %32, %33
  br label %35

35:                                               ; preds = %23, %12
  %.0.i = phi i8 [ %22, %12 ], [ %34, %23 ]
  %.not.i = icmp eq i8 %.0.i, 0
  br i1 %.not.i, label %_ZN4Luau7CodeGen3X6418AssemblyBuilderX648placeRexENS1_10OperandX64E.exit, label %36

36:                                               ; preds = %35
  %37 = or i8 %.0.i, 64
  %38 = getelementptr inbounds nuw i8, ptr %0, i64 232
  %39 = load ptr, ptr %38, align 8, !tbaa !51
  %40 = getelementptr inbounds nuw i8, ptr %39, i64 1
  store ptr %40, ptr %38, align 8, !tbaa !51
  store i8 %37, ptr %39, align 1, !tbaa !13
  br label %_ZN4Luau7CodeGen3X6418AssemblyBuilderX648placeRexENS1_10OperandX64E.exit

_ZN4Luau7CodeGen3X6418AssemblyBuilderX648placeRexENS1_10OperandX64E.exit: ; preds = %11, %35, %36
  %41 = getelementptr inbounds nuw i8, ptr %0, i64 232
  %42 = load ptr, ptr %41, align 8, !tbaa !51
  %43 = getelementptr inbounds nuw i8, ptr %42, i64 1
  store ptr %43, ptr %41, align 8, !tbaa !51
  store i8 15, ptr %42, align 1, !tbaa !13
  %44 = zext i8 %1 to i64
  %45 = getelementptr inbounds nuw [26 x i8], ptr @_ZN4Luau7CodeGen3X64L16codeForConditionE, i64 0, i64 %44
  %46 = load i8, ptr %45, align 1, !tbaa !13
  %47 = or i8 %46, -112
  %48 = load ptr, ptr %41, align 8, !tbaa !51
  %49 = getelementptr inbounds nuw i8, ptr %48, i64 1
  store ptr %49, ptr %41, align 8, !tbaa !51
  store i8 %47, ptr %48, align 1, !tbaa !13
  tail call void @_ZN4Luau7CodeGen3X6418AssemblyBuilderX6414placeModRegMemENS1_10OperandX64Ehi(ptr noundef nonnull align 8 dereferenceable(252) %0, i64 %2, i8 noundef zeroext 0, i32 noundef 0)
  %50 = getelementptr inbounds nuw i8, ptr %0, i64 248
  %51 = load i32, ptr %50, align 8, !tbaa !63
  %52 = add i32 %51, 1
  store i32 %52, ptr %50, align 8, !tbaa !63
  %53 = getelementptr inbounds nuw i8, ptr %0, i64 240
  %54 = load ptr, ptr %53, align 8, !tbaa !52
  %55 = load ptr, ptr %41, align 8, !tbaa !51
  %56 = ptrtoint ptr %54 to i64
  %57 = ptrtoint ptr %55 to i64
  %58 = sub i64 %56, %57
  %59 = and i64 %58, 4294967280
  %60 = icmp eq i64 %59, 0
  br i1 %60, label %61, label %_ZN4Luau7CodeGen3X6418AssemblyBuilderX646commitEv.exit

61:                                               ; preds = %_ZN4Luau7CodeGen3X6418AssemblyBuilderX648placeRexENS1_10OperandX64E.exit
  tail call void @_ZN4Luau7CodeGen3X6418AssemblyBuilderX646extendEv(ptr noundef nonnull align 8 dereferenceable(252) %0)
  br label %_ZN4Luau7CodeGen3X6418AssemblyBuilderX646commitEv.exit

_ZN4Luau7CodeGen3X6418AssemblyBuilderX646commitEv.exit: ; preds = %_ZN4Luau7CodeGen3X6418AssemblyBuilderX648placeRexENS1_10OperandX64E.exit, %61
  ret void
}